(dp0
S'Use_limited_entries'
p1
I00
sS'events_used'
p2
I51213194
sS'quark_Flavour_str'
p3
S'Quark_pdgId'
p4
sS'mc_Pt_str'
p5
S'Jet_mcPt'
p6
sS'DG_rel_weight'
p7
F0.7
sS'SBF_n_bins'
p8
(dp9
S'b'
p10
(lp11
(lp12
I100
aI100
aI100
aI100
aI100
aI100
aI100
aI100
aI100
aI100
aI100
aI100
aI100
aI100
aI100
aI100
aI100
aI100
aI100
aI100
aI100
aI100
aI100
aI100
aI100
aI100
aI100
aI100
aI100
aI100
aI100
aI100
aI100
aI100
aI100
aI100
aI100
aI100
aI100
aI100
aI100
aI100
aI100
aI100
aI100
aI100
aI100
aI100
aI100
aI100
aI100
aI100
aI100
aI100
aI100
aI100
aI100
aI100
aa(lp13
I100
aI100
aI100
aI100
aI100
aI100
aI100
aI100
aI100
aI100
aI100
aI100
aI100
aI100
aI100
aI100
aI100
aI100
aI100
aI100
aI100
aI100
aI100
aI100
aI100
aI100
aI100
aI100
aI100
aI100
aI100
aI100
aI100
aI100
aI100
aI100
aI100
aI100
aI100
aI100
aI100
aI100
aI100
aI100
aI100
aI100
aI100
aI100
aI100
aI100
aI100
aI100
aI100
aI100
aI100
aI100
aI100
aI100
aasS'l'
p14
(lp15
(lp16
I100
aI100
aI100
aI100
aI100
aI100
aI100
aI100
aI100
aI100
aI100
aI100
aI100
aI100
aI100
aI100
aI100
aI100
aI100
aI100
aI100
aI100
aI100
aI100
aI100
aI100
aI100
aI100
aI100
aI100
aI100
aI100
aI100
aI100
aI100
aI100
aI100
aI100
aI100
aI100
aI100
aI100
aI100
aI100
aI100
aI100
aI100
aI100
aI100
aI100
aI100
aI100
aI100
aI100
aI100
aI100
aI100
aI100
aa(lp17
I100
aI100
aI100
aI100
aI100
aI100
aI100
aI100
aI100
aI100
aI100
aI100
aI100
aI100
aI100
aI100
aI100
aI100
aI100
aI100
aI100
aI100
aI100
aI100
aI100
aI100
aI100
aI100
aI100
aI100
aI100
aI100
aI100
aI100
aI100
aI100
aI100
aI100
aI100
aI100
aI100
aI100
aI100
aI100
aI100
aI100
aI100
aI100
aI100
aI100
aI100
aI100
aI100
aI100
aI100
aI100
aI100
aI100
aassS'selection_string'
p18
(dp19
g10
S'abs(Quark_pdgId)==5 && abs(Quark_eta)>=1.0 && abs(Quark_eta)<=2.5 && abs(Quark_pt)>=30.0 && abs(Quark_pt)<=300.0'
p20
sg14
S'abs(Quark_pdgId)!=5 && abs(Quark_eta)>=1.0 && abs(Quark_eta)<=2.5 && abs(Quark_pt)>=30.0 && abs(Quark_pt)<=300.0'
p21
ssS'Standard_SG_func'
p22
(iTFClasses
function
p23
(dp24
S'par_values'
p25
(lp26
sS'par_errors'
p27
(lp28
sS'par_limits'
p29
(lp30
sS'Is_SG'
p31
I01
sS'SG_mean'
p32
S'[1]'
p33
sS'str'
p34
S'[0]*exp(-0.5*((x-([1]))/([2]))**2)'
p35
sS'par_initials'
p36
(lp37
S'0'
p38
aS'mean'
p39
aS'rms'
p40
asS'SG_rms'
p41
S'[2]'
p42
sbsS'Draw_ABF_in_single_bins'
p43
I01
sS'reco_Pt_str'
p44
S'Jet_pt'
p45
sS'outputdir'
p46
S'V12_REALFULL_JETS'
p47
sS'quark_Phi_str'
p48
S'Quark_phi'
p49
sS'n_E_hist_bins'
p50
I1000
sS'input_root_file_name'
p51
S'/shome/tklijnsm/Samples/V12TFsamples/CUSTOMTFFILE_V12_FULL_JETS.root'
p52
sS'input_tree_name'
p53
S'tree'
p54
sS'particles'
p55
(lp56
g10
ag14
asS'E_bounds'
p57
(lp58
F30.0
aF300.0
asS'mc_Eta_str'
p59
S'Jet_mcEta'
p60
sS'Standard_DG_func'
p61
(iTFClasses
function
p62
(dp63
S'DG_rel_weight'
p64
F0.7
sg25
(lp65
sS'DG_mean'
p66
(lp67
g33
aS'[3]'
p68
asg27
(lp69
sg29
(lp70
(I1
F0.0
F2000.0
tp71
a(I2
F0.0
F2000.0
tp72
a(I3
F0.0
F2000.0
tp73
a(I4
F0.0
F2000.0
tp74
asS'Is_DG'
p75
I01
sg34
S'[0]*(0.7*exp(-0.5*((x-([1]))/([2]))**2)+(1-0.7)*exp(-0.5*((x-([3]))/([2]+[4]))**2))'
p76
sg36
(lp77
g38
aS'1.1*mean'
p78
aS'1.0*rms'
p79
aS'0.7*mean'
p80
aS'0.5*rms'
p81
asS'fitrange'
p82
(F30.1
F500.0
tp83
sS'DG_rms'
p84
(lp85
g42
aS'[2]+[4]'
p86
asbsS'mc_Flavour_str'
p87
S'Jet_mcFlavour'
p88
sS'ABFunctions'
p89
(dp90
g10
(lp91
(iTFClasses
function
p92
(dp93
g27
(lp94
sg25
(lp95
sg29
g30
sg34
S'1'
p96
sg36
(lp97
sba(iTFClasses
function
p98
(dp99
g27
(lp100
sg25
(lp101
sg29
g30
sg34
S'[0]+[1]*x'
p102
sg36
(lp103
g38
ag96
asba(iTFClasses
function
p104
(dp105
g27
(lp106
sg25
(lp107
sg29
g30
sg34
S'[0]*1.0/x + [1]*x*x*x+[2]*x*x+[3]*x+[4]'
p108
sg36
(lp109
g38
ag38
ag38
ag38
ag38
asba(iTFClasses
function
p110
(dp111
g27
(lp112
sg25
(lp113
sg29
g30
sg34
g102
sg36
(lp114
g38
ag96
asba(iTFClasses
function
p115
(dp116
g27
(lp117
sg25
(lp118
sg29
g30
sg34
S'[0]*1.0/x + [1]*x*x+[2]*x+[3]'
p119
sg36
(lp120
g38
ag38
ag38
ag38
asbasg14
(lp121
(iTFClasses
function
p122
(dp123
g27
(lp124
sg25
(lp125
sg29
g30
sg34
g96
sg36
g97
sba(iTFClasses
function
p126
(dp127
g27
(lp128
sg25
(lp129
sg29
g30
sg34
g102
sg36
(lp130
g38
ag96
asba(iTFClasses
function
p131
(dp132
g27
(lp133
sg25
(lp134
sg29
g30
sg34
g108
sg36
(lp135
g38
ag38
ag38
ag38
ag38
asba(iTFClasses
function
p136
(dp137
g27
(lp138
sg25
(lp139
sg29
g30
sg34
g102
sg36
(lp140
g38
ag96
asba(iTFClasses
function
p141
(dp142
g27
(lp143
sg25
(lp144
sg29
g30
sg34
g119
sg36
(lp145
g38
ag38
ag38
ag38
asbassS'quark_E_str'
p146
S'Quark_pt'
p147
sS'reco_Phi_str'
p148
S'Jet_phi'
p149
sS'eta_axis'
p150
(lp151
F0.0
aF1.0
aF2.5
asS'n_entries_limited'
p152
I100000
sS'quark_Pt_str'
p153
g147
sS'SBF_plot_ranges'
p154
(dp155
g10
(lp156
(lp157
(lp158
I0
aF68.64
aa(lp159
I0
aF74.04
aa(lp160
I0
aF78.9
aa(lp161
I0
aF83.76
aa(lp162
I0
aF88.62
aa(lp163
I0
aF93.48
aa(lp164
I0
aF98.34
aa(lp165
I0
aF103.74000000000001
aa(lp166
I0
aF108.6
aa(lp167
I0
aF113.46000000000001
aa(lp168
I0
aF118.32000000000001
aa(lp169
I0
aF123.18
aa(lp170
I0
aF128.04000000000002
aa(lp171
I0
aF133.44
aa(lp172
I0
aF138.3
aa(lp173
I0
aF143.16000000000003
aa(lp174
I0
aF148.02
aa(lp175
I0
aF152.88
aa(lp176
I0
aF157.74
aa(lp177
I0
aF163.14
aa(lp178
I0
aF168.0
aa(lp179
I0
aF172.86
aa(lp180
I0
aF177.72000000000003
aa(lp181
I0
aF182.58
aa(lp182
I0
aF187.44
aa(lp183
I0
aF192.84
aa(lp184
I0
aF197.70000000000002
aa(lp185
I0
aF202.56
aa(lp186
I0
aF207.42000000000002
aa(lp187
I0
aF212.28
aa(lp188
I0
aF217.14000000000001
aa(lp189
I0
aF222.54000000000002
aa(lp190
I0
aF227.4
aa(lp191
I0
aF232.26000000000002
aa(lp192
I0
aF237.12
aa(lp193
I0
aF241.98000000000002
aa(lp194
I0
aF246.84
aa(lp195
I0
aF252.24
aa(lp196
I0
aF257.1
aa(lp197
I0
aF261.96000000000004
aa(lp198
I0
aF266.82000000000005
aa(lp199
I0
aF272.22
aa(lp200
I0
aF277.62
aa(lp201
I0
aF283.02
aa(lp202
I0
aF289.5
aa(lp203
I0
aF295.98
aa(lp204
I0
aF303.54
aa(lp205
I0
aF311.64
aa(lp206
I0
aF320.28000000000003
aa(lp207
I0
aF330.0
aa(lp208
I0
aF341.34000000000003
aa(lp209
I0
aF354.3
aa(lp210
I0
aF369.42
aa(lp211
I0
aF387.78000000000003
aa(lp212
I0
aF411.0
aa(lp213
I0
aF442.86
aa(lp214
I0
aF492.0
aa(lp215
I0
aF600.0
aaa(lp216
(lp217
I0
aF67.56
aa(lp218
I0
aF71.88
aa(lp219
I0
aF76.74000000000001
aa(lp220
I0
aF81.06
aa(lp221
I0
aF85.92
aa(lp222
I0
aF90.78
aa(lp223
I0
aF95.1
aa(lp224
I0
aF99.96000000000001
aa(lp225
I0
aF104.28
aa(lp226
I0
aF109.14
aa(lp227
I0
aF113.46000000000001
aa(lp228
I0
aF118.32000000000001
aa(lp229
I0
aF122.64
aa(lp230
I0
aF127.5
aa(lp231
I0
aF131.82
aa(lp232
I0
aF136.68
aa(lp233
I0
aF141.0
aa(lp234
I0
aF145.86
aa(lp235
I0
aF150.18
aa(lp236
I0
aF155.04000000000002
aa(lp237
I0
aF159.36
aa(lp238
I0
aF164.22000000000003
aa(lp239
I0
aF169.08
aa(lp240
I0
aF173.4
aa(lp241
I0
aF178.26
aa(lp242
I0
aF182.58
aa(lp243
I0
aF187.44
aa(lp244
I0
aF191.76000000000002
aa(lp245
I0
aF196.62
aa(lp246
I0
aF200.94
aa(lp247
I0
aF205.8
aa(lp248
I0
aF210.12
aa(lp249
I0
aF214.98000000000002
aa(lp250
I0
aF219.3
aa(lp251
I0
aF224.16000000000003
aa(lp252
I0
aF228.48000000000002
aa(lp253
I0
aF233.34
aa(lp254
I0
aF237.66000000000003
aa(lp255
I0
aF242.52
aa(lp256
I0
aF246.84
aa(lp257
I0
aF251.70000000000002
aa(lp258
I0
aF256.56
aa(lp259
I0
aF261.42
aa(lp260
I0
aF266.82000000000005
aa(lp261
I0
aF272.22
aa(lp262
I0
aF278.16
aa(lp263
I0
aF285.18
aa(lp264
I0
aF292.20000000000005
aa(lp265
I0
aF300.3
aa(lp266
I0
aF309.48
aa(lp267
I0
aF319.74
aa(lp268
I0
aF331.62
aa(lp269
I0
aF345.66
aa(lp270
I0
aF362.40000000000003
aa(lp271
I0
aF384.54
aa(lp272
I0
aF415.32000000000005
aa(lp273
I0
aF465.0
aa(lp274
I0
aF600.0
aaasg14
(lp275
(lp276
(lp277
I0
aF64.86
aa(lp278
I0
aF69.18
aa(lp279
I0
aF72.96000000000001
aa(lp280
I0
aF77.28
aa(lp281
I0
aF81.06
aa(lp282
I0
aF85.38
aa(lp283
I0
aF89.16
aa(lp284
I0
aF93.48
aa(lp285
I0
aF97.80000000000001
aa(lp286
I0
aF101.58000000000001
aa(lp287
I0
aF105.9
aa(lp288
I0
aF109.68
aa(lp289
I0
aF114.0
aa(lp290
I0
aF117.78
aa(lp291
I0
aF122.1
aa(lp292
I0
aF125.88000000000001
aa(lp293
I0
aF130.2
aa(lp294
I0
aF134.52
aa(lp295
I0
aF138.3
aa(lp296
I0
aF142.62
aa(lp297
I0
aF146.4
aa(lp298
I0
aF150.72
aa(lp299
I0
aF154.5
aa(lp300
I0
aF158.82
aa(lp301
I0
aF163.14
aa(lp302
I0
aF166.92000000000002
aa(lp303
I0
aF171.24
aa(lp304
I0
aF175.02
aa(lp305
I0
aF179.34
aa(lp306
I0
aF183.12
aa(lp307
I0
aF187.44
aa(lp308
I0
aF191.22
aa(lp309
I0
aF195.54000000000002
aa(lp310
I0
aF199.86
aa(lp311
I0
aF203.64000000000001
aa(lp312
I0
aF207.96
aa(lp313
I0
aF211.74
aa(lp314
I0
aF216.06
aa(lp315
I0
aF219.84
aa(lp316
I0
aF224.16000000000003
aa(lp317
I0
aF229.02
aa(lp318
I0
aF233.88000000000002
aa(lp319
I0
aF238.74
aa(lp320
I0
aF244.14000000000001
aa(lp321
I0
aF250.08
aa(lp322
I0
aF256.56
aa(lp323
I0
aF263.58000000000004
aa(lp324
I0
aF271.14
aa(lp325
I0
aF279.78
aa(lp326
I0
aF288.96000000000004
aa(lp327
I0
aF299.76
aa(lp328
I0
aF312.72
aa(lp329
I0
aF327.3
aa(lp330
I0
aF345.12
aa(lp331
I0
aF368.88
aa(lp332
I0
aF401.28000000000003
aa(lp333
I0
aF454.20000000000005
aa(lp334
I0
aF600.0
aaa(lp335
(lp336
I0
aF64.86
aa(lp337
I0
aF68.64
aa(lp338
I0
aF72.42
aa(lp339
I0
aF76.2
aa(lp340
I0
aF79.98
aa(lp341
I0
aF83.76
aa(lp342
I0
aF87.54
aa(lp343
I0
aF91.32
aa(lp344
I0
aF95.1
aa(lp345
I0
aF98.88
aa(lp346
I0
aF102.66
aa(lp347
I0
aF106.44
aa(lp348
I0
aF110.22
aa(lp349
I0
aF114.0
aa(lp350
I0
aF117.78
aa(lp351
I0
aF121.56
aa(lp352
I0
aF125.88000000000001
aa(lp353
I0
aF129.66000000000003
aa(lp354
I0
aF133.44
aa(lp355
I0
aF137.22
aa(lp356
I0
aF141.0
aa(lp357
I0
aF144.78
aa(lp358
I0
aF148.56
aa(lp359
I0
aF152.34
aa(lp360
I0
aF156.12
aa(lp361
I0
aF159.9
aa(lp362
I0
aF163.68
aa(lp363
I0
aF167.46
aa(lp364
I0
aF171.24
aa(lp365
I0
aF175.02
aa(lp366
I0
aF178.8
aa(lp367
I0
aF182.58
aa(lp368
I0
aF186.36
aa(lp369
I0
aF190.68
aa(lp370
I0
aF194.46
aa(lp371
I0
aF198.24
aa(lp372
I0
aF202.02
aa(lp373
I0
aF205.8
aa(lp374
I0
aF209.58
aa(lp375
I0
aF213.36
aa(lp376
I0
aF217.68
aa(lp377
I0
aF222.0
aa(lp378
I0
aF226.86
aa(lp379
I0
aF231.72
aa(lp380
I0
aF237.12
aa(lp381
I0
aF243.06
aa(lp382
I0
aF249.54000000000002
aa(lp383
I0
aF256.56
aa(lp384
I0
aF264.66
aa(lp385
I0
aF273.3
aa(lp386
I0
aF283.02
aa(lp387
I0
aF294.9
aa(lp388
I0
aF308.4
aa(lp389
I0
aF325.14000000000004
aa(lp390
I0
aF346.74
aa(lp391
I0
aF377.52000000000004
aa(lp392
I0
aF428.82000000000005
aa(lp393
I0
aF600.0
aaassS'date'
p394
S'2015-07-09 17:10:31'
p395
sS'enddate'
p396
S'2015-07-09 18:46:10'
p397
sS'quark_Eta_str'
p398
S'Quark_eta'
p399
sS'n_total_events'
p400
L107162816L
sS'info'
p401
S'*** Information on this config.dat ***\nThis config file contains the input parameters (and some output parameters) used in the creation of TFMat.dat, the matrix of transfer functions. \n\nSome html-overviews are produced in the output directory.\n\n This config.dat was created on: 2015-07-09 17:10:31'
p402
sS'E_or_Pt_str'
p403
S'Pt'
p404
sS'n_E_bins'
p405
I58
sS'Use_mc_values'
p406
I00
sS'E_value_mean_or_center'
p407
S'm'
p408
sS'reco_E_str'
p409
g45
sS'reco_Eta_str'
p410
S'Jet_eta'
p411
sS'mc_Phi_str'
p412
S'Jet_mcPhi'
p413
sS'SBF_hists_pickle_filename'
p414
S'V12_REALFULL_JETS/SBF_hists_pickle.dat'
p415
sS'bin_functions'
p416
(dp417
g10
(lp418
(iTFClasses
function
p419
(dp420
g27
(lp421
sg25
(lp422
sg66
(lp423
g33
ag68
asg64
F0.7
sg29
(lp424
g71
ag72
ag73
ag74
asg75
I01
sg34
g76
sg36
(lp425
g38
ag78
ag79
ag80
ag81
asg82
g83
sg84
(lp426
g42
ag86
asba(iTFClasses
function
p427
(dp428
g27
(lp429
sg25
(lp430
sg66
(lp431
g33
ag68
asg64
F0.7
sg29
(lp432
g71
ag72
ag73
ag74
asg75
I01
sg34
g76
sg36
(lp433
g38
ag78
ag79
ag80
ag81
asg82
g83
sg84
(lp434
g42
ag86
asbasg14
(lp435
(iTFClasses
function
p436
(dp437
g27
(lp438
sg25
(lp439
sg66
(lp440
g33
ag68
asg64
F0.7
sg29
(lp441
g71
ag72
ag73
ag74
asg75
I01
sg34
g76
sg36
(lp442
g38
ag78
ag79
ag80
ag81
asg82
g83
sg84
(lp443
g42
ag86
asba(iTFClasses
function
p444
(dp445
g27
(lp446
sg25
(lp447
sg66
(lp448
g33
ag68
asg64
F0.7
sg29
(lp449
g71
ag72
ag73
ag74
asg75
I01
sg34
g76
sg36
(lp450
g38
ag78
ag79
ag80
ag81
asg82
g83
sg84
(lp451
g42
ag86
asbassS'SBF_fitted_hists_pickle_filename'
p452
S'V12_REALFULL_JETS/SBF_fitted_hists_pickle.dat'
p453
sS'mc_E_str'
p454
S'Jet_mcE'
p455
sS'Use_Pt'
p456
I01
s.